(lp0
S'poi'
p1
aS'exercised_stock_options'
p2
aS'total_stock_value'
p3
aS'fraction_to_poi'
p4
aS'bonus'
p5
aS'salary'
p6
aS'restricted_stock'
p7
aS'long_term_incentive'
p8
aS'deferred_income'
p9
aS'expenses'
p10
aS'total_payments'
p11
aS'loan_advances'
p12
aS'shared_receipt_with_poi'
p13
aS'shared_poi_per_email'
p14
aS'email_exists'
p15
aS'other'
p16
aS'director_fees'
p17
a.